target datalayout = "e-m:e-p270:32:32-p271:32:32-p272:64:64-i64:64-i128:128-f80:128-n8:16:32:64-S128"
target triple = "x86_64-pc-linux-gnu"

%struct.WC_RNG = type { %struct.OS_Seed, ptr, ptr, i8 }
%struct.OS_Seed = type { i32 }
%struct.sp_int = type { i16, i16, [129 x i64] }
%struct.ecc_key = type { i32, i32, i32, i32, ptr, ptr, %struct.ecc_point, [1 x %struct.sp_int], ptr }
%struct.ecc_point = type { [1 x %struct.sp_int], [1 x %struct.sp_int], [1 x %struct.sp_int], i8 }
%struct.timespec = type { i64, i64 }

@err_prefix = internal constant [1 x i8] zeroinitializer, align 1
@devId = internal thread_local global i32 -2, align 4
@gRng = internal thread_local global %struct.WC_RNG zeroinitializer, align 8
@lng_index = internal global i32 0, align 4
@.str.75 = private unnamed_addr constant [13 x i8] c"ECC   [%15s]\00", align 1
@.str.78 = private unnamed_addr constant [28 x i8] c"%s%s L%d error %d for \22%s\22\0A\00", align 1
@.str.79 = private unnamed_addr constant [125 x i8] c"generated/home/dtcxzyw/WorkSpace/Projects/compilers/llvm-opt-benchmark/bench/wolfssl/wolfssl/wolfcrypt/benchmark/benchmark.c\00", align 1
@.str.80 = private unnamed_addr constant [35 x i8] c"clock_gettime(CLOCK_REALTIME, &tv)\00", align 1
@stdout = external global ptr, align 8
@total_cycles = internal thread_local global i64 0, align 8

; Function Attrs: inlinehint nounwind uwtable
define internal i64 @get_intel_cycles() #3 {
  %1 = alloca i32, align 4
  %2 = alloca i32, align 4
  call void @llvm.lifetime.start.p0(i64 4, ptr %1) #12
  call void @llvm.lifetime.start.p0(i64 4, ptr %2) #12
  %3 = call { i32, i32 } asm sideeffect "cpuid\0A\09rdtsc", "={ax},={dx},{ax},~{ebx},~{ecx},~{dirflag},~{fpsr},~{flags}"(i32 0) #12, !srcloc !261
  %4 = extractvalue { i32, i32 } %3, 0
  %5 = extractvalue { i32, i32 } %3, 1
  store i32 %4, ptr %1, align 4, !tbaa !4
  store i32 %5, ptr %2, align 4, !tbaa !4
  %6 = load i32, ptr %1, align 4, !tbaa !4
  %7 = zext i32 %6 to i64
  %8 = load i32, ptr %2, align 4, !tbaa !4
  %9 = zext i32 %8 to i64
  %10 = shl i64 %9, 32
  %11 = or i64 %7, %10
  call void @llvm.lifetime.end.p0(i64 4, ptr %2) #12
  call void @llvm.lifetime.end.p0(i64 4, ptr %1) #12
  ret i64 %11
}

; Function Attrs: nounwind uwtable
define dso_local double @current_time(i32 noundef %0) #0 {
  %2 = alloca i32, align 4
  %3 = alloca %struct.timespec, align 8
  %4 = alloca i32, align 4
  store i32 %0, ptr %2, align 4, !tbaa !4
  call void @llvm.lifetime.start.p0(i64 16, ptr %3) #12
  br label %5

5:                                                ; preds = %1
  call void @llvm.lifetime.start.p0(i64 4, ptr %4) #12
  %6 = call i32 @clock_gettime(i32 noundef 0, ptr noundef %3) #12
  store i32 %6, ptr %4, align 4, !tbaa !4
  %7 = load i32, ptr %4, align 4, !tbaa !4
  %8 = icmp slt i32 %7, 0
  br i1 %8, label %9, label %15

9:                                                ; preds = %5
  %10 = call ptr @__errno_location() #14
  %11 = load i32, ptr %10, align 4, !tbaa !4
  %12 = call i32 (ptr, ...) @printf(ptr noundef @.str.78, ptr noundef @err_prefix, ptr noundef @.str.79, i32 noundef 14994, i32 noundef %11, ptr noundef @.str.80)
  %13 = load ptr, ptr @stdout, align 8, !tbaa !14
  %14 = call i32 @fflush(ptr noundef %13)
  call void @_exit(i32 noundef 1) #15
  unreachable

15:                                               ; preds = %5
  call void @llvm.lifetime.end.p0(i64 4, ptr %4) #12
  br label %16

16:                                               ; preds = %15
  br label %17

17:                                               ; preds = %16
  %18 = getelementptr inbounds nuw %struct.timespec, ptr %3, i32 0, i32 0
  %19 = load i64, ptr %18, align 8, !tbaa !241
  %20 = sitofp i64 %19 to double
  %21 = getelementptr inbounds nuw %struct.timespec, ptr %3, i32 0, i32 1
  %22 = load i64, ptr %21, align 8, !tbaa !243
  %23 = sitofp i64 %22 to double
  %24 = fdiv double %23, 1.000000e+09
  %25 = fadd double %20, %24
  call void @llvm.lifetime.end.p0(i64 16, ptr %3) #12
  ret double %25
}

; Function Attrs: inlinehint nounwind uwtable
define internal i32 @bench_stats_check(double noundef %0) #3 {
  %2 = alloca double, align 8
  %3 = alloca i32, align 4
  %4 = alloca double, align 8
  store double %0, ptr %2, align 8, !tbaa !20
  call void @llvm.lifetime.start.p0(i64 4, ptr %3) #12
  store i32 0, ptr %3, align 4, !tbaa !4
  call void @llvm.lifetime.start.p0(i64 8, ptr %4) #12
  store double 0.000000e+00, ptr %4, align 8, !tbaa !20
  %5 = call double @current_time(i32 noundef 0)
  store double %5, ptr %4, align 8, !tbaa !20
  %6 = load double, ptr %4, align 8, !tbaa !20
  %7 = load double, ptr %2, align 8, !tbaa !20
  %8 = fsub double %6, %7
  %9 = fcmp olt double %8, 1.000000e+00
  %10 = zext i1 %9 to i32
  store i32 %10, ptr %3, align 4, !tbaa !4
  %11 = load i32, ptr %3, align 4, !tbaa !4
  call void @llvm.lifetime.end.p0(i64 8, ptr %4) #12
  call void @llvm.lifetime.end.p0(i64 4, ptr %3) #12
  ret i32 %11
}

; Function Attrs: inlinehint nounwind uwtable
define internal i32 @bench_async_handle(ptr noundef %0, ptr noundef %1, i32 noundef %2, ptr noundef %3, ptr noundef %4) #3 {
  %6 = alloca i32, align 4
  %7 = alloca ptr, align 8
  %8 = alloca ptr, align 8
  %9 = alloca i32, align 4
  %10 = alloca ptr, align 8
  %11 = alloca ptr, align 8
  store ptr %0, ptr %7, align 8, !tbaa !23
  store ptr %1, ptr %8, align 8, !tbaa !8
  store i32 %2, ptr %9, align 4, !tbaa !4
  store ptr %3, ptr %10, align 8, !tbaa !23
  store ptr %4, ptr %11, align 8, !tbaa !23
  %12 = load ptr, ptr %7, align 8, !tbaa !23
  %13 = load i32, ptr %12, align 4, !tbaa !4
  %14 = icmp sge i32 %13, 0
  br i1 %14, label %15, label %19

15:                                               ; preds = %5
  %16 = load ptr, ptr %10, align 8, !tbaa !23
  %17 = load i32, ptr %16, align 4, !tbaa !4
  %18 = add nsw i32 %17, 1
  store i32 %18, ptr %16, align 4, !tbaa !4
  store i32 1, ptr %6, align 4
  br label %20

19:                                               ; preds = %5
  store i32 0, ptr %6, align 4
  br label %20

20:                                               ; preds = %19, %15
  %21 = load i32, ptr %6, align 4
  ret i32 %21
}

; Function Attrs: inlinehint nounwind uwtable
define internal i32 @bench_async_check(ptr noundef %0, ptr noundef %1, i32 noundef %2, ptr noundef %3, i32 noundef %4, ptr noundef %5) #3 {
  %7 = alloca ptr, align 8
  %8 = alloca ptr, align 8
  %9 = alloca i32, align 4
  %10 = alloca ptr, align 8
  %11 = alloca i32, align 4
  %12 = alloca ptr, align 8
  store ptr %0, ptr %7, align 8, !tbaa !23
  store ptr %1, ptr %8, align 8, !tbaa !8
  store i32 %2, ptr %9, align 4, !tbaa !4
  store ptr %3, ptr %10, align 8, !tbaa !23
  store i32 %4, ptr %11, align 4, !tbaa !4
  store ptr %5, ptr %12, align 8, !tbaa !23
  ret i32 1
}

; Function Attrs: inlinehint nounwind uwtable
define internal void @bench_stats_start(ptr noundef %0, ptr noundef %1) #3 {
  %3 = alloca ptr, align 8
  %4 = alloca ptr, align 8
  store ptr %0, ptr %3, align 8, !tbaa !23
  store ptr %1, ptr %4, align 8, !tbaa !25
  %5 = load ptr, ptr %3, align 8, !tbaa !23
  store i32 0, ptr %5, align 4, !tbaa !4
  %6 = call double @current_time(i32 noundef 1)
  %7 = load ptr, ptr %4, align 8, !tbaa !25
  store double %6, ptr %7, align 8, !tbaa !20
  %8 = call i64 @get_intel_cycles()
  %9 = call align 8 ptr @llvm.threadlocal.address.p0(ptr align 8 @total_cycles)
  store i64 %8, ptr %9, align 8, !tbaa !10
  ret void
}

; Function Attrs: nounwind uwtable
define dso_local void @bench_eccMakeKey(i32 noundef %0, i32 noundef %1) #0 {
  %3 = alloca i32, align 4
  %4 = alloca i32, align 4
  %5 = alloca i32, align 4
  %6 = alloca i32, align 4
  %7 = alloca i32, align 4
  %8 = alloca i32, align 4
  %9 = alloca i32, align 4
  %10 = alloca i32, align 4
  %11 = alloca i32, align 4
  %12 = alloca [1 x [1 x %struct.ecc_key]], align 16
  %13 = alloca [24 x i8], align 16
  %14 = alloca double, align 8
  %15 = alloca ptr, align 8
  store i32 %0, ptr %3, align 4, !tbaa !4
  store i32 %1, ptr %4, align 4, !tbaa !4
  call void @llvm.lifetime.start.p0(i64 4, ptr %5) #12
  store i32 0, ptr %5, align 4, !tbaa !4
  call void @llvm.lifetime.start.p0(i64 4, ptr %6) #12
  call void @llvm.lifetime.start.p0(i64 4, ptr %7) #12
  call void @llvm.lifetime.start.p0(i64 4, ptr %8) #12
  store i32 0, ptr %8, align 4, !tbaa !4
  call void @llvm.lifetime.start.p0(i64 4, ptr %9) #12
  store i32 0, ptr %9, align 4, !tbaa !4
  call void @llvm.lifetime.start.p0(i64 4, ptr %10) #12
  call void @llvm.lifetime.start.p0(i64 4, ptr %11) #12
  store i32 0, ptr %11, align 4, !tbaa !4
  call void @llvm.lifetime.start.p0(i64 4208, ptr %12) #12
  call void @llvm.lifetime.start.p0(i64 24, ptr %13) #12
  call void @llvm.lifetime.start.p0(i64 8, ptr %14) #12
  store double 0.000000e+00, ptr %14, align 8, !tbaa !20
  call void @llvm.lifetime.start.p0(i64 8, ptr %15) #12
  %16 = load i32, ptr @lng_index, align 4, !tbaa !4
  %17 = sext i32 %16 to i64
  %18 = getelementptr inbounds [2 x [15 x ptr]], ptr @bench_desc_words, i64 0, i64 %17
  %19 = getelementptr inbounds [15 x ptr], ptr %18, i64 0, i64 0
  store ptr %19, ptr %15, align 8, !tbaa !27
  %20 = getelementptr inbounds [1 x [1 x %struct.ecc_key]], ptr %12, i64 0, i64 0
  call void @llvm.memset.p0.i64(ptr align 16 %20, i8 0, i64 4208, i1 false)
  %21 = load i32, ptr %3, align 4, !tbaa !4
  %22 = icmp ne i32 %21, 0
  br i1 %22, label %23, label %26

23:                                               ; preds = %2
  %24 = call align 4 ptr @llvm.threadlocal.address.p0(ptr align 4 @devId)
  %25 = load i32, ptr %24, align 4, !tbaa !4
  br label %27

26:                                               ; preds = %2
  br label %27

27:                                               ; preds = %26, %23
  %28 = phi i32 [ %25, %23 ], [ -2, %26 ]
  store i32 %28, ptr %10, align 4, !tbaa !4
  %29 = load i32, ptr %4, align 4, !tbaa !4
  %30 = call i32 @wc_ecc_get_curve_size_from_id(i32 noundef %29)
  store i32 %30, ptr %11, align 4, !tbaa !4
  call void @bench_stats_start(ptr noundef %8, ptr noundef %14)
  br label %31

31:                                               ; preds = %90, %27
  store i32 0, ptr %7, align 4, !tbaa !4
  br label %32

32:                                               ; preds = %85, %31
  %33 = load i32, ptr %7, align 4, !tbaa !4
  %34 = icmp slt i32 %33, 100
  br i1 %34, label %38, label %35

35:                                               ; preds = %32
  %36 = load i32, ptr %9, align 4, !tbaa !4
  %37 = icmp sgt i32 %36, 0
  br label %38

38:                                               ; preds = %35, %32
  %39 = phi i1 [ true, %32 ], [ %37, %35 ]
  br i1 %39, label %40, label %86

40:                                               ; preds = %38
  br label %41

41:                                               ; preds = %40
  br label %42

42:                                               ; preds = %41
  br label %43

43:                                               ; preds = %42
  store i32 0, ptr %6, align 4, !tbaa !4
  br label %44

44:                                               ; preds = %79, %43
  %45 = load i32, ptr %6, align 4, !tbaa !4
  %46 = icmp slt i32 %45, 1
  br i1 %46, label %47, label %82

47:                                               ; preds = %44
  %48 = call i32 @bench_async_check(ptr noundef %5, ptr noundef null, i32 noundef 0, ptr noundef %7, i32 noundef 100, ptr noundef %9)
  %49 = icmp ne i32 %48, 0
  br i1 %49, label %50, label %78

50:                                               ; preds = %47
  %51 = load i32, ptr %6, align 4, !tbaa !4
  %52 = sext i32 %51 to i64
  %53 = getelementptr inbounds [1 x [1 x %struct.ecc_key]], ptr %12, i64 0, i64 %52
  %54 = getelementptr inbounds [1 x %struct.ecc_key], ptr %53, i64 0, i64 0
  %55 = call i32 @wc_ecc_free(ptr noundef %54)
  %56 = load i32, ptr %6, align 4, !tbaa !4
  %57 = sext i32 %56 to i64
  %58 = getelementptr inbounds [1 x [1 x %struct.ecc_key]], ptr %12, i64 0, i64 %57
  %59 = getelementptr inbounds [1 x %struct.ecc_key], ptr %58, i64 0, i64 0
  %60 = load i32, ptr %10, align 4, !tbaa !4
  %61 = call i32 @wc_ecc_init_ex(ptr noundef %59, ptr noundef null, i32 noundef %60)
  store i32 %61, ptr %5, align 4, !tbaa !4
  %62 = load i32, ptr %5, align 4, !tbaa !4
  %63 = icmp slt i32 %62, 0
  br i1 %63, label %64, label %65

64:                                               ; preds = %50
  br label %95

65:                                               ; preds = %50
  %66 = call align 8 ptr @llvm.threadlocal.address.p0(ptr align 8 @gRng)
  %67 = load i32, ptr %11, align 4, !tbaa !4
  %68 = load i32, ptr %6, align 4, !tbaa !4
  %69 = sext i32 %68 to i64
  %70 = getelementptr inbounds [1 x [1 x %struct.ecc_key]], ptr %12, i64 0, i64 %69
  %71 = getelementptr inbounds [1 x %struct.ecc_key], ptr %70, i64 0, i64 0
  %72 = load i32, ptr %4, align 4, !tbaa !4
  %73 = call i32 @wc_ecc_make_key_ex(ptr noundef %66, i32 noundef %67, ptr noundef %71, i32 noundef %72)
  store i32 %73, ptr %5, align 4, !tbaa !4
  %74 = call i32 @bench_async_handle(ptr noundef %5, ptr noundef null, i32 noundef 0, ptr noundef %7, ptr noundef %9)
  %75 = icmp ne i32 %74, 0
  br i1 %75, label %77, label %76

76:                                               ; preds = %65
  br label %95

77:                                               ; preds = %65
  br label %78

78:                                               ; preds = %77, %47
  br label %79

79:                                               ; preds = %78
  %80 = load i32, ptr %6, align 4, !tbaa !4
  %81 = add nsw i32 %80, 1
  store i32 %81, ptr %6, align 4, !tbaa !4
  br label %44, !llvm.loop !216

82:                                               ; preds = %44
  br label %83

83:                                               ; preds = %82
  br label %84

84:                                               ; preds = %83
  br label %85

85:                                               ; preds = %84
  br label %32, !llvm.loop !217

86:                                               ; preds = %38
  %87 = load i32, ptr %7, align 4, !tbaa !4
  %88 = load i32, ptr %8, align 4, !tbaa !4
  %89 = add nsw i32 %88, %87
  store i32 %89, ptr %8, align 4, !tbaa !4
  br label %90

90:                                               ; preds = %86
  %91 = load double, ptr %14, align 8, !tbaa !20
  %92 = call i32 @bench_stats_check(double noundef %91)
  %93 = icmp ne i32 %92, 0
  br i1 %93, label %31, label %94, !llvm.loop !218

94:                                               ; preds = %90
  br label %95

95:                                               ; preds = %94, %76, %64
  %96 = getelementptr inbounds [24 x i8], ptr %13, i64 0, i64 0
  %97 = load i32, ptr %4, align 4, !tbaa !4
  %98 = call ptr @wc_ecc_get_name(i32 noundef %97)
  %99 = call i32 (ptr, i64, ptr, ...) @snprintf(ptr noundef %96, i64 noundef 24, ptr noundef @.str.75, ptr noundef %98) #12
  %100 = getelementptr inbounds [24 x i8], ptr %13, i64 0, i64 0
  %101 = load i32, ptr %11, align 4, !tbaa !4
  %102 = mul nsw i32 %101, 8
  %103 = load ptr, ptr %15, align 8, !tbaa !27
  %104 = getelementptr inbounds ptr, ptr %103, i64 2
  %105 = load ptr, ptr %104, align 8, !tbaa !12
  %106 = load i32, ptr %3, align 4, !tbaa !4
  %107 = load i32, ptr %8, align 4, !tbaa !4
  %108 = load double, ptr %14, align 8, !tbaa !20
  %109 = load i32, ptr %5, align 4, !tbaa !4
  call void @bench_stats_asym_finish(ptr noundef %100, i32 noundef %102, ptr noundef %105, i32 noundef %106, i32 noundef %107, double noundef %108, i32 noundef %109)
  store i32 0, ptr %6, align 4, !tbaa !4
  br label %110

110:                                              ; preds = %119, %95
  %111 = load i32, ptr %6, align 4, !tbaa !4
  %112 = icmp slt i32 %111, 1
  br i1 %112, label %113, label %122

113:                                              ; preds = %110
  %114 = load i32, ptr %6, align 4, !tbaa !4
  %115 = sext i32 %114 to i64
  %116 = getelementptr inbounds [1 x [1 x %struct.ecc_key]], ptr %12, i64 0, i64 %115
  %117 = getelementptr inbounds [1 x %struct.ecc_key], ptr %116, i64 0, i64 0
  %118 = call i32 @wc_ecc_free(ptr noundef %117)
  br label %119

119:                                              ; preds = %113
  %120 = load i32, ptr %6, align 4, !tbaa !4
  %121 = add nsw i32 %120, 1
  store i32 %121, ptr %6, align 4, !tbaa !4
  br label %110, !llvm.loop !219

122:                                              ; preds = %110
  br label %123

123:                                              ; preds = %122
  br label %124

124:                                              ; preds = %123
  br label %125

125:                                              ; preds = %124
  call void @llvm.lifetime.end.p0(i64 8, ptr %15) #12
  call void @llvm.lifetime.end.p0(i64 8, ptr %14) #12
  call void @llvm.lifetime.end.p0(i64 24, ptr %13) #12
  call void @llvm.lifetime.end.p0(i64 4208, ptr %12) #12
  call void @llvm.lifetime.end.p0(i64 4, ptr %11) #12
  call void @llvm.lifetime.end.p0(i64 4, ptr %10) #12
  call void @llvm.lifetime.end.p0(i64 4, ptr %9) #12
  call void @llvm.lifetime.end.p0(i64 4, ptr %8) #12
  call void @llvm.lifetime.end.p0(i64 4, ptr %7) #12
  call void @llvm.lifetime.end.p0(i64 4, ptr %6) #12
  call void @llvm.lifetime.end.p0(i64 4, ptr %5) #12
  ret void
}