; Function Attrs: nounwind uwtable
define dso_local void @bench_eccMakeKey(i32 %0, i32 noundef %1) local_unnamed_addr #0 {
  %3 = alloca %struct.timespec, align 8
  %4 = alloca %struct.timespec, align 8
  %5 = alloca [1 x [1 x %struct.ecc_key]], align 16
  %6 = alloca [24 x i8], align 16
  call void @llvm.lifetime.start.p0(i64 4208, ptr nonnull %5) #16
  call void @llvm.lifetime.start.p0(i64 24, ptr nonnull %6) #16
  %7 = load i32, ptr @lng_index, align 4, !tbaa !4
  call void @llvm.memset.p0.i64(ptr noundef nonnull align 16 dereferenceable(4208) %5, i8 0, i64 4208, i1 false)
  %8 = tail call i32 @wc_ecc_get_curve_size_from_id(i32 noundef %1) #16
  call void @llvm.lifetime.start.p0(i64 16, ptr nonnull %4) #16
  %9 = call i32 @clock_gettime(i32 noundef 0, ptr noundef nonnull %4) #16
  %10 = icmp slt i32 %9, 0
  br i1 %10, label %11, label %bench_stats_start.exit

11:                                               ; preds = %2
  %12 = tail call ptr @__errno_location() #17
  %13 = load i32, ptr %12, align 4, !tbaa !4
  %14 = call i32 (ptr, ...) @printf(ptr noundef nonnull dereferenceable(1) @.str.78, ptr noundef nonnull @.str.113, ptr noundef nonnull @.str.79, i32 noundef 14994, i32 noundef %13, ptr noundef nonnull @.str.80)
  %15 = load ptr, ptr @stdout, align 8, !tbaa !14
  %16 = call i32 @fflush(ptr noundef %15)
  call void @_exit(i32 noundef 1) #18
  unreachable

bench_stats_start.exit:                           ; preds = %2
  %17 = load i64, ptr %4, align 8, !tbaa !16
  %18 = sitofp i64 %17 to double
  %19 = getelementptr inbounds nuw i8, ptr %4, i64 8
  %20 = load i64, ptr %19, align 8, !tbaa !19
  %21 = sitofp i64 %20 to double
  %22 = fdiv double %21, 1.000000e+09
  %23 = fadd double %22, %18
  call void @llvm.lifetime.end.p0(i64 16, ptr nonnull %4) #16
  %24 = call { i32, i32 } asm sideeffect "cpuid\0A\09rdtsc", "={ax},={dx},{ax},~{ebx},~{ecx},~{dirflag},~{fpsr},~{flags}"(i32 0) #16, !srcloc !20
  %25 = extractvalue { i32, i32 } %24, 0
  %26 = extractvalue { i32, i32 } %24, 1
  %27 = zext i32 %25 to i64
  %28 = zext i32 %26 to i64
  %29 = shl nuw i64 %28, 32
  %30 = or disjoint i64 %29, %27
  %31 = call align 8 ptr @llvm.threadlocal.address.p0(ptr align 8 @total_cycles)
  store i64 %30, ptr %31, align 8, !tbaa !21
  %32 = call align 8 ptr @llvm.threadlocal.address.p0(ptr align 8 @gRng)
  %33 = getelementptr inbounds nuw i8, ptr %3, i64 8
  br label %34

34:                                               ; preds = %bench_stats_check.exit, %bench_stats_start.exit
  %.027 = phi i32 [ 0, %bench_stats_start.exit ], [ %52, %bench_stats_check.exit ]
  br label %35

35:                                               ; preds = %34, %bench_async_handle.exit
  %.02940 = phi i32 [ 0, %34 ], [ %42, %bench_async_handle.exit ]
  %36 = call i32 @wc_ecc_free(ptr noundef nonnull %5) #16
  %37 = call i32 @wc_ecc_init_ex(ptr noundef nonnull %5, ptr noundef null, i32 noundef -2) #16
  %38 = icmp slt i32 %37, 0
  br i1 %38, label %.critedge19, label %39

39:                                               ; preds = %35
  %40 = call i32 @wc_ecc_make_key_ex(ptr noundef nonnull %32, i32 noundef %8, ptr noundef nonnull %5, i32 noundef %1) #16
  %41 = icmp sgt i32 %40, -1
  br i1 %41, label %bench_async_handle.exit, label %.critedge19

bench_async_handle.exit:                          ; preds = %39
  %42 = add nuw nsw i32 %.02940, 1
  %exitcond.not = icmp eq i32 %42, 100
  br i1 %exitcond.not, label %43, label %35

43:                                               ; preds = %bench_async_handle.exit
  call void @llvm.lifetime.start.p0(i64 16, ptr nonnull %3) #16
  %44 = call i32 @clock_gettime(i32 noundef 0, ptr noundef nonnull %3) #16
  %45 = icmp slt i32 %44, 0
  br i1 %45, label %46, label %bench_stats_check.exit

46:                                               ; preds = %43
  %47 = tail call ptr @__errno_location() #17
  %48 = load i32, ptr %47, align 4, !tbaa !4
  %49 = call i32 (ptr, ...) @printf(ptr noundef nonnull dereferenceable(1) @.str.78, ptr noundef nonnull @.str.113, ptr noundef nonnull @.str.79, i32 noundef 14994, i32 noundef %48, ptr noundef nonnull @.str.80)
  %50 = load ptr, ptr @stdout, align 8, !tbaa !14
  %51 = call i32 @fflush(ptr noundef %50)
  call void @_exit(i32 noundef 1) #18
  unreachable

bench_stats_check.exit:                           ; preds = %43
  %52 = add nuw nsw i32 %.027, 100
  %53 = load i64, ptr %3, align 8, !tbaa !16
  %54 = sitofp i64 %53 to double
  %55 = load i64, ptr %33, align 8, !tbaa !19
  %56 = sitofp i64 %55 to double
  %57 = fdiv double %56, 1.000000e+09
  %58 = fadd double %57, %54
  call void @llvm.lifetime.end.p0(i64 16, ptr nonnull %3) #16
  %59 = fsub double %58, %23
  %60 = fcmp uge double %59, 1.000000e+00
  br i1 %60, label %.critedge19, label %34, !llvm.loop !91

.critedge19:                                      ; preds = %bench_stats_check.exit, %39, %35
  %.128 = phi i32 [ %.027, %35 ], [ %.027, %39 ], [ %52, %bench_stats_check.exit ]
  %.2 = phi i32 [ %40, %39 ], [ %37, %35 ], [ %40, %bench_stats_check.exit ]
  %61 = sext i32 %7 to i64
  %62 = call ptr @wc_ecc_get_name(i32 noundef %1) #16
  %63 = call i32 (ptr, i64, ptr, ...) @snprintf(ptr noundef nonnull dereferenceable(1) %6, i64 noundef 24, ptr noundef nonnull @.str.75, ptr noundef %62) #16
  %64 = shl nsw i32 %8, 3
  %65 = getelementptr inbounds [2 x [15 x ptr]], ptr @bench_desc_words, i64 0, i64 %61, i64 2
  %66 = load ptr, ptr %65, align 8, !tbaa !8
  call fastcc void @bench_stats_asym_finish(ptr noundef nonnull %6, i32 noundef %64, ptr noundef %66, i32 noundef %.128, double noundef %23, i32 noundef %.2)
  %67 = call i32 @wc_ecc_free(ptr noundef nonnull %5) #16
  call void @llvm.lifetime.end.p0(i64 24, ptr nonnull %6) #16
  call void @llvm.lifetime.end.p0(i64 4208, ptr nonnull %5) #16
  ret void
}